target datalayout = "e-m:e-p270:32:32-p271:32:32-p272:64:64-i64:64-i128:128-f80:128-n8:16:32:64-S128"
target triple = "x86_64-pc-linux-gnu"

%struct.patch_ids = type { %struct.hashmap, %struct.diff_options }
%struct.hashmap = type { ptr, ptr, ptr, i32, i32, i32, i32, i8 }
%struct.diff_options = type { ptr, ptr, i32, i32, ptr, i32, ptr, i64, i64, ptr, ptr, ptr, ptr, %struct.diff_flags, i32, i32, i32, i32, i32, i32, i32, i32, i32, i32, i32, i32, i32, i32, i32, i32, i32, i32, i32, i32, i32, i32, ptr, i32, ptr, i32, i32, ptr, i64, i64, i32, i32, i32, i32, ptr, i32, i32, ptr, i32, i32, ptr, ptr, i32, [3 x i8], %struct.pathspec, ptr, ptr, ptr, ptr, ptr, ptr, ptr, ptr, i32, ptr, i32, i32, ptr, ptr, i32 }
%struct.diff_flags = type { i32, i32, i32, i32, i32, i32, i32, i32, i32, i32, i32, i32, i32, i32, i32, i32, i32, i32, i32, i32, i32, i32, i32, i32, i32, i32, i32, i32, i32, i32, i32, i32, i32, i32, i32 }
%struct.pathspec = type { i32, i8, i32, i32, ptr }

; Function Attrs: nounwind uwtable
define dso_local i32 @init_patch_ids(ptr noundef %0, ptr noundef %1) #0 {
  %3 = alloca ptr, align 8
  %4 = alloca ptr, align 8
  store ptr %0, ptr %3, align 8, !tbaa !25
  store ptr %1, ptr %4, align 8, !tbaa !27
  %5 = load ptr, ptr %4, align 8, !tbaa !27
  call void @llvm.memset.p0.i64(ptr align 8 %5, i8 0, i64 640, i1 false)
  %6 = load ptr, ptr %3, align 8, !tbaa !25
  %7 = load ptr, ptr %4, align 8, !tbaa !27
  %8 = getelementptr inbounds nuw %struct.patch_ids, ptr %7, i32 0, i32 1
  call void @repo_diff_setup(ptr noundef %6, ptr noundef %8)
  %9 = load ptr, ptr %4, align 8, !tbaa !27
  %10 = getelementptr inbounds nuw %struct.patch_ids, ptr %9, i32 0, i32 1
  %11 = getelementptr inbounds nuw %struct.diff_options, ptr %10, i32 0, i32 20
  store i32 0, ptr %11, align 4, !tbaa !29
  %12 = load ptr, ptr %4, align 8, !tbaa !27
  %13 = getelementptr inbounds nuw %struct.patch_ids, ptr %12, i32 0, i32 1
  %14 = getelementptr inbounds nuw %struct.diff_options, ptr %13, i32 0, i32 13
  %15 = getelementptr inbounds nuw %struct.diff_flags, ptr %14, i32 0, i32 0
  store i32 1, ptr %15, align 8, !tbaa !44
  %16 = load ptr, ptr %4, align 8, !tbaa !27
  %17 = getelementptr inbounds nuw %struct.patch_ids, ptr %16, i32 0, i32 1
  call void @diff_setup_done(ptr noundef %17)
  %18 = load ptr, ptr %4, align 8, !tbaa !27
  %19 = getelementptr inbounds nuw %struct.patch_ids, ptr %18, i32 0, i32 0
  %20 = load ptr, ptr %4, align 8, !tbaa !27
  %21 = getelementptr inbounds nuw %struct.patch_ids, ptr %20, i32 0, i32 1
  call void @hashmap_init(ptr noundef %19, ptr noundef @patch_id_neq, ptr noundef %21, i64 noundef 256)
  ret i32 0
}