; Function Attrs: nounwind uwtable
define dso_local noundef i32 @init_patch_ids(ptr noundef %0, ptr noundef initializes((0, 640)) %1) local_unnamed_addr #0 {
  tail call void @llvm.memset.p0.i64(ptr noundef nonnull align 8 dereferenceable(640) %1, i8 0, i64 640, i1 false)
  %3 = getelementptr inbounds nuw i8, ptr %1, i64 48
  tail call void @repo_diff_setup(ptr noundef %0, ptr noundef nonnull %3) #6
  %4 = getelementptr inbounds nuw i8, ptr %1, i64 308
  store i32 0, ptr %4, align 4, !tbaa !19
  %5 = getelementptr inbounds nuw i8, ptr %1, i64 144
  store i32 1, ptr %5, align 8, !tbaa !35
  tail call void @diff_setup_done(ptr noundef nonnull %3) #6
  tail call void @hashmap_init(ptr noundef nonnull %1, ptr noundef nonnull @patch_id_neq, ptr noundef nonnull %3, i64 noundef 256) #6
  ret i32 0
}